#include <math.h>
#include <stdio.h>
#include <stdlib.h>
#include <string.h>

void main()
{
	int cha(char array[11]);
	int i,j;
	char str[11],substr[4];
	for(i=0;scanf("%s %s",str,substr)!=EOF;i++)
	{
	   for(j=0;j<=cha(str);j++)
	    	printf("%c",str[j]);
	   printf("%s",substr);
	   for(j=j;str[j]!='\0';j++)
	    	printf("%c",str[j]);
	   printf("\n");
	}
}

int cha(char array[11])
{
	int i,k=0;
	for(i=1;array[i]!='\0';i++)
	{
		if(array[k]<array[i])
			k=i;
	}
	return (k);
}