; ModuleID = 'source-C-CXX/19/71.c'
source_filename = "source-C-CXX/19/71.c"
target datalayout = "e-m:e-p270:32:32-p271:32:32-p272:64:64-i64:64-f80:128-n8:16:32:64-S128"
target triple = "x86_64-pc-linux-gnu"

@.str = private unnamed_addr constant [6 x i8] c"%s %s\00", align 1
@.str.2 = private unnamed_addr constant [3 x i8] c"%s\00", align 1

; Function Attrs: nofree nounwind sspstrong uwtable
define dso_local void @main() local_unnamed_addr #0 {
  %1 = alloca [11 x i8], align 1
  %2 = alloca [4 x i8], align 1
  %3 = getelementptr inbounds [11 x i8], [11 x i8]* %1, i64 0, i64 0
  call void @llvm.lifetime.start.p0i8(i64 11, i8* nonnull %3) #5
  %4 = getelementptr inbounds [4 x i8], [4 x i8]* %2, i64 0, i64 0
  call void @llvm.lifetime.start.p0i8(i64 4, i8* nonnull %4) #5
  %5 = getelementptr inbounds [11 x i8], [11 x i8]* %1, i64 0, i64 1
  %6 = call i32 (i8*, ...) @__isoc99_scanf(i8* getelementptr inbounds ([6 x i8], [6 x i8]* @.str, i64 0, i64 0), i8* nonnull %3, i8* nonnull %4)
  %7 = icmp eq i32 %6, -1
  br i1 %7, label %57, label %8

8:                                                ; preds = %0, %36
  %9 = phi i64 [ %37, %36 ], [ 0, %0 ]
  %10 = load i8, i8* %5, align 1, !tbaa !5
  %11 = icmp eq i8 %10, 0
  br i1 %11, label %26, label %12

12:                                               ; preds = %8, %12
  %13 = phi i64 [ %22, %12 ], [ 1, %8 ]
  %14 = phi i8 [ %24, %12 ], [ %10, %8 ]
  %15 = phi i32 [ %21, %12 ], [ 0, %8 ]
  %16 = sext i32 %15 to i64
  %17 = getelementptr inbounds [11 x i8], [11 x i8]* %1, i64 0, i64 %16
  %18 = load i8, i8* %17, align 1, !tbaa !5
  %19 = icmp slt i8 %18, %14
  %20 = trunc i64 %13 to i32
  %21 = select i1 %19, i32 %20, i32 %15
  %22 = add nuw nsw i64 %13, 1
  %23 = getelementptr inbounds [11 x i8], [11 x i8]* %1, i64 0, i64 %22
  %24 = load i8, i8* %23, align 1, !tbaa !5
  %25 = icmp eq i8 %24, 0
  br i1 %25, label %26, label %12, !llvm.loop !8

26:                                               ; preds = %12, %8
  %27 = phi i32 [ 0, %8 ], [ %21, %12 ]
  %28 = sext i32 %27 to i64
  %29 = icmp sgt i64 %9, %28
  br i1 %29, label %38, label %30

30:                                               ; preds = %26
  %31 = getelementptr inbounds [11 x i8], [11 x i8]* %1, i64 0, i64 %9
  %32 = load i8, i8* %31, align 1, !tbaa !5
  %33 = sext i8 %32 to i32
  %34 = call i32 @putchar(i32 %33)
  %35 = add nuw nsw i64 %9, 1
  br label %36

36:                                               ; preds = %30, %53
  %37 = phi i64 [ %35, %30 ], [ 0, %53 ]
  br label %8, !llvm.loop !10

38:                                               ; preds = %26
  %39 = call i32 (i8*, ...) @printf(i8* nonnull dereferenceable(1) getelementptr inbounds ([3 x i8], [3 x i8]* @.str.2, i64 0, i64 0), i8* nonnull %4)
  %40 = and i64 %9, 4294967295
  %41 = getelementptr inbounds [11 x i8], [11 x i8]* %1, i64 0, i64 %40
  %42 = load i8, i8* %41, align 1, !tbaa !5
  %43 = icmp eq i8 %42, 0
  br i1 %43, label %53, label %44

44:                                               ; preds = %38, %44
  %45 = phi i64 [ %49, %44 ], [ %9, %38 ]
  %46 = phi i8 [ %51, %44 ], [ %42, %38 ]
  %47 = sext i8 %46 to i32
  %48 = call i32 @putchar(i32 %47)
  %49 = add nuw i64 %45, 1
  %50 = getelementptr inbounds [11 x i8], [11 x i8]* %1, i64 0, i64 %49
  %51 = load i8, i8* %50, align 1, !tbaa !5
  %52 = icmp eq i8 %51, 0
  br i1 %52, label %53, label %44, !llvm.loop !11

53:                                               ; preds = %44, %38
  %54 = call i32 @putchar(i32 10)
  %55 = call i32 (i8*, ...) @__isoc99_scanf(i8* getelementptr inbounds ([6 x i8], [6 x i8]* @.str, i64 0, i64 0), i8* nonnull %3, i8* nonnull %4)
  %56 = icmp eq i32 %55, -1
  br i1 %56, label %57, label %36

57:                                               ; preds = %53, %0
  call void @llvm.lifetime.end.p0i8(i64 4, i8* nonnull %4) #5
  call void @llvm.lifetime.end.p0i8(i64 11, i8* nonnull %3) #5
  ret void
}

; Function Attrs: argmemonly mustprogress nofree nosync nounwind willreturn
declare void @llvm.lifetime.start.p0i8(i64 immarg, i8* nocapture) #1

; Function Attrs: nofree nounwind
declare noundef i32 @__isoc99_scanf(i8* nocapture noundef readonly, ...) local_unnamed_addr #2

; Function Attrs: nofree norecurse nosync nounwind readonly sspstrong uwtable
define dso_local i32 @cha(i8* nocapture readonly %0) local_unnamed_addr #3 {
  %2 = getelementptr inbounds i8, i8* %0, i64 1
  %3 = load i8, i8* %2, align 1, !tbaa !5
  %4 = icmp eq i8 %3, 0
  br i1 %4, label %19, label %5

5:                                                ; preds = %1, %5
  %6 = phi i64 [ %15, %5 ], [ 1, %1 ]
  %7 = phi i8 [ %17, %5 ], [ %3, %1 ]
  %8 = phi i32 [ %14, %5 ], [ 0, %1 ]
  %9 = sext i32 %8 to i64
  %10 = getelementptr inbounds i8, i8* %0, i64 %9
  %11 = load i8, i8* %10, align 1, !tbaa !5
  %12 = icmp slt i8 %11, %7
  %13 = trunc i64 %6 to i32
  %14 = select i1 %12, i32 %13, i32 %8
  %15 = add nuw nsw i64 %6, 1
  %16 = getelementptr inbounds i8, i8* %0, i64 %15
  %17 = load i8, i8* %16, align 1, !tbaa !5
  %18 = icmp eq i8 %17, 0
  br i1 %18, label %19, label %5, !llvm.loop !8

19:                                               ; preds = %5, %1
  %20 = phi i32 [ 0, %1 ], [ %14, %5 ]
  ret i32 %20
}

; Function Attrs: nofree nounwind
declare noundef i32 @printf(i8* nocapture noundef readonly, ...) local_unnamed_addr #2

; Function Attrs: argmemonly mustprogress nofree nosync nounwind willreturn
declare void @llvm.lifetime.end.p0i8(i64 immarg, i8* nocapture) #1

; Function Attrs: nofree nounwind
declare noundef i32 @putchar(i32 noundef) local_unnamed_addr #4


!llvm.module.flags = !{!0, !1, !2, !3}
!llvm.ident = !{!4}

!0 = !{i32 1, !"wchar_size", i32 4}
!1 = !{i32 7, !"PIC Level", i32 2}
!2 = !{i32 7, !"PIE Level", i32 2}
!3 = !{i32 7, !"uwtable", i32 1}
!4 = !{!"clang version 13.0.0"}
!5 = !{!6, !6, i64 0}
!6 = !{!"omnipotent char", !7, i64 0}
!7 = !{!"Simple C/C++ TBAA"}
!8 = distinct !{!8, !9}
!9 = !{!"llvm.loop.mustprogress"}
!10 = distinct !{!10, !9}
!11 = distinct !{!11, !9}
